Certificate:
    Data:
        Version: 3 (0x2)
        Serial Number:
            d1:4f:57:a6:13:61:ee:3c:cc:78:4d:a0:99:db:20:78
    Signature Algorithm: sha256WithRSAEncryption
        Issuer: CN=Easy-RSA CA
        Validity
            Not Before: Jan  4 06:38:27 2021 GMT
            Not After : Jan  2 06:38:27 2031 GMT
        Subject: CN=client
        Subject Public Key Info:
            Public Key Algorithm: rsaEncryption
                Public-Key: (2048 bit)
                Modulus:
                    00:bb:25:5f:c8:d0:62:b2:8e:27:dc:b1:b5:31:47:
                    71:51:70:3e:a8:d8:ca:30:33:d1:11:cb:45:16:c1:
                    54:92:cb:af:34:66:1e:e9:49:bb:ae:97:eb:56:1e:
                    22:2d:c8:cc:ca:9c:75:ba:83:73:bb:9f:a0:1f:63:
                    ad:8b:66:0c:e9:c2:0c:51:35:80:04:a0:99:02:29:
                    6b:57:c8:65:d3:1a:11:d8:79:ff:05:fb:44:57:ee:
                    04:b0:92:9f:24:66:a2:50:f5:9e:a3:d9:22:d9:0f:
                    b3:97:c6:6b:5e:2a:de:89:c5:77:6d:a2:3b:38:3f:
                    8e:2e:2b:06:15:8e:18:bc:26:89:f1:c1:a5:8f:ee:
                    0e:cb:84:d7:64:47:13:b0:e5:5c:82:b2:d8:f2:fd:
                    3d:f0:92:7a:f6:88:11:56:3e:74:74:ae:31:3a:cb:
                    32:ac:cd:d2:bb:42:dc:a4:16:79:d3:33:61:d3:4e:
                    5c:2e:75:59:75:55:27:54:d7:f3:cc:22:45:f6:a9:
                    32:52:72:52:69:48:fc:cf:78:eb:5c:0e:da:b9:71:
                    94:da:da:a5:5e:fe:59:c2:f0:fd:09:46:20:5a:9d:
                    b4:68:35:de:2e:30:0d:a7:f2:64:b4:a4:09:54:f0:
                    e9:04:0b:0a:00:ef:9e:ac:4a:b0:bb:d1:7c:a8:47:
                    d9:f7
                Exponent: 65537 (0x10001)
        X509v3 extensions:
            X509v3 Basic Constraints: 
                CA:FALSE
            X509v3 Subject Key Identifier: 
                95:29:84:E6:CB:3A:0D:38:36:4D:08:1C:37:5D:0E:3E:88:AF:21:77
            X509v3 Authority Key Identifier: 
                keyid:0F:2B:55:46:FC:76:49:39:D7:05:4A:D1:BC:47:20:AA:5B:1F:C8:15
                DirName:/CN=Easy-RSA CA
                serial:AC:84:FE:8F:8E:6C:9A:73

            X509v3 Extended Key Usage: 
                TLS Web Client Authentication
            X509v3 Key Usage: 
                Digital Signature
    Signature Algorithm: sha256WithRSAEncryption
         4c:9d:28:87:28:da:0d:38:6a:39:c6:4a:56:6e:3b:f2:72:76:
         da:75:7c:d7:dd:ef:a7:f6:5e:23:62:f8:3f:de:a6:6b:95:98:
         cc:6f:83:20:bf:9a:a7:00:fd:b8:bc:98:6e:48:27:e4:76:5f:
         cf:5c:21:63:dd:19:c9:b3:05:c6:44:a4:c7:cf:88:f3:82:01:
         35:56:3d:b1:25:d7:28:89:da:76:37:22:a0:92:58:0d:6f:5f:
         35:17:55:12:a4:f2:c6:17:5c:a2:bf:ce:7a:ae:10:01:89:c1:
         b8:10:2f:36:ed:6c:51:a0:95:2d:ca:e0:14:19:4e:6a:cc:23:
         62:aa:34:30:95:ee:53:d4:86:44:d6:11:82:44:0c:17:57:09:
         41:f2:be:9f:fc:c3:b1:c5:95:b4:51:be:12:56:59:43:97:36:
         f0:0d:f7:3e:7d:45:16:1e:0a:bb:00:61:b5:95:f2:62:7d:5f:
         46:59:49:c1:bc:87:7b:28:da:f8:0c:5a:df:d2:60:31:7b:4c:
         37:07:e7:88:39:73:fd:c9:49:94:5c:20:77:07:28:aa:dc:22:
         65:cd:1a:8f:8c:40:2f:55:e7:77:8d:d3:6a:31:f1:bf:f2:e0:
         b5:75:d0:0c:d6:34:3e:7f:6a:79:a8:28:6f:e2:a0:85:7a:e1:
         84:84:f5:5f
-----BEGIN CERTIFICATE-----
MIIDSjCCAjKgAwIBAgIRANFPV6YTYe48zHhNoJnbIHgwDQYJKoZIhvcNAQELBQAw
FjEUMBIGA1UEAwwLRWFzeS1SU0EgQ0EwHhcNMjEwMTA0MDYzODI3WhcNMzEwMTAy
MDYzODI3WjARMQ8wDQYDVQQDDAZjbGllbnQwggEiMA0GCSqGSIb3DQEBAQUAA4IB
DwAwggEKAoIBAQC7JV/I0GKyjifcsbUxR3FRcD6o2MowM9ERy0UWwVSSy680Zh7p
Sbuul+tWHiItyMzKnHW6g3O7n6AfY62LZgzpwgxRNYAEoJkCKWtXyGXTGhHYef8F
+0RX7gSwkp8kZqJQ9Z6j2SLZD7OXxmteKt6JxXdtojs4P44uKwYVjhi8JonxwaWP
7g7LhNdkRxOw5VyCstjy/T3wknr2iBFWPnR0rjE6yzKszdK7QtykFnnTM2HTTlwu
dVl1VSdU1/PMIkX2qTJSclJpSPzPeOtcDtq5cZTa2qVe/lnC8P0JRiBanbRoNd4u
MA2n8mS0pAlU8OkECwoA756sSrC70XyoR9n3AgMBAAGjgZcwgZQwCQYDVR0TBAIw
ADAdBgNVHQ4EFgQUlSmE5ss6DTg2TQgcN10OPoivIXcwRgYDVR0jBD8wPYAUDytV
Rvx2STnXBUrRvEcgqlsfyBWhGqQYMBYxFDASBgNVBAMMC0Vhc3ktUlNBIENBggkA
rIT+j45smnMwEwYDVR0lBAwwCgYIKwYBBQUHAwIwCwYDVR0PBAQDAgeAMA0GCSqG
SIb3DQEBCwUAA4IBAQBMnSiHKNoNOGo5xkpWbjvycnbadXzX3e+n9l4jYvg/3qZr
lZjMb4Mgv5qnAP24vJhuSCfkdl/PXCFj3RnJswXGRKTHz4jzggE1Vj2xJdcoidp2
NyKgklgNb181F1USpPLGF1yiv856rhABicG4EC827WxRoJUtyuAUGU5qzCNiqjQw
le5T1IZE1hGCRAwXVwlB8r6f/MOxxZW0Ub4SVllDlzbwDfc+fUUWHgq7AGG1lfJi
fV9GWUnBvId7KNr4DFrf0mAxe0w3B+eIOXP9yUmUXCB3Byiq3CJlzRqPjEAvVed3
jdNqMfG/8uC1ddAM1jQ+f2p5qChv4qCFeuGEhPVf
-----END CERTIFICATE-----
