Certificate:
    Data:
        Version: 3 (0x2)
        Serial Number:
            65:41:40:92:7d:c1:5a:c9:de:5c:4e:cc:b6:e9:85:b4
    Signature Algorithm: sha256WithRSAEncryption
        Issuer: CN=Easy-RSA CA
        Validity
            Not Before: Jan  4 06:36:57 2021 GMT
            Not After : Jan  2 06:36:57 2031 GMT
        Subject: CN=newhtboxserver
        Subject Public Key Info:
            Public Key Algorithm: rsaEncryption
                Public-Key: (2048 bit)
                Modulus:
                    00:ad:cd:82:6b:38:88:5b:ad:df:f7:fc:df:31:08:
                    af:80:6f:af:39:4b:eb:0b:97:b6:6e:16:c5:41:67:
                    2a:6d:87:0a:55:ef:e5:0b:8a:b1:1b:e4:4f:eb:b1:
                    24:bd:7e:1a:9f:92:50:0a:bd:5a:1a:3a:59:b6:37:
                    22:a1:06:fa:b3:06:9b:55:13:e2:e2:1e:12:3d:f5:
                    35:b3:9b:2c:86:b0:1e:de:7d:e4:a5:88:d6:f0:25:
                    3e:fe:9b:22:e1:c1:09:bb:ba:f4:23:ad:e0:96:f4:
                    9f:23:a7:85:af:6d:7f:72:89:d9:78:31:b8:b4:72:
                    06:05:db:4c:66:60:9d:21:1c:7e:08:f3:36:24:9a:
                    2a:d8:11:26:fa:53:f4:01:0c:7b:5d:48:3d:7b:79:
                    57:77:ae:f9:57:09:1e:6d:d2:00:0a:02:51:0b:b9:
                    bd:b8:58:4a:c0:b1:4c:b6:8a:d1:37:03:12:50:d5:
                    fd:b4:18:31:72:95:1b:f9:cd:04:a0:ee:e2:4d:0c:
                    8f:95:9a:c2:4c:60:8f:7f:df:d4:63:26:9d:ef:17:
                    97:65:bd:c2:0a:0f:28:5c:ec:d6:20:be:fd:ce:bf:
                    6d:c7:9a:fc:21:45:f5:c7:78:f8:7d:df:a1:71:5c:
                    93:ae:18:4e:37:42:db:06:f8:04:99:c8:4f:a2:98:
                    82:61
                Exponent: 65537 (0x10001)
        X509v3 extensions:
            X509v3 Basic Constraints: 
                CA:FALSE
            X509v3 Subject Key Identifier: 
                F4:9C:7A:1B:17:D0:63:CD:ED:C1:7C:1C:88:7A:03:F0:CA:69:2B:F4
            X509v3 Authority Key Identifier: 
                keyid:0F:2B:55:46:FC:76:49:39:D7:05:4A:D1:BC:47:20:AA:5B:1F:C8:15
                DirName:/CN=Easy-RSA CA
                serial:AC:84:FE:8F:8E:6C:9A:73

            X509v3 Extended Key Usage: 
                TLS Web Server Authentication
            X509v3 Key Usage: 
                Digital Signature, Key Encipherment
            X509v3 Subject Alternative Name: 
                DNS:newhtboxserver
    Signature Algorithm: sha256WithRSAEncryption
         9e:68:44:ac:96:bb:df:30:ab:36:8c:4a:bd:2f:12:07:1e:4f:
         31:ce:5b:ef:41:f1:91:cf:70:73:49:23:ab:97:10:2b:9d:80:
         91:0f:d0:3b:2b:f1:e9:54:78:19:88:a2:b4:48:56:00:17:da:
         e5:00:88:bc:83:84:f6:02:bd:64:ab:46:da:8f:a3:67:fd:a7:
         54:c3:88:81:34:65:5f:c1:f4:42:41:53:ed:e6:da:8a:80:97:
         22:05:83:b3:0a:f4:f0:d1:90:34:76:8d:18:06:de:7c:09:76:
         a2:23:6d:ed:9f:6e:df:9d:00:ba:1f:fc:0e:f9:0b:5a:60:56:
         6f:84:0c:93:b3:41:a6:e4:2d:ff:bd:6e:0d:ad:1c:e3:82:c8:
         26:f2:9f:92:9f:44:41:65:ad:f6:2e:32:d1:33:d0:70:59:0c:
         20:17:bc:5d:ad:07:e3:c1:d0:20:4e:75:78:0e:0f:60:49:9e:
         c3:34:f5:8a:0f:96:09:21:1c:13:ea:23:72:36:f4:c9:68:1e:
         3e:6a:bd:d3:11:3c:cd:b4:03:df:e0:02:f7:88:10:2a:73:0f:
         09:1e:46:46:d1:75:8c:db:7d:e3:e5:7a:e2:d6:75:3f:a5:e2:
         29:93:7d:12:9d:fc:3d:cc:46:98:ae:3f:d9:38:8a:cb:ba:96:
         15:25:d8:7b
-----BEGIN CERTIFICATE-----
MIIDbDCCAlSgAwIBAgIQZUFAkn3BWsneXE7MtumFtDANBgkqhkiG9w0BAQsFADAW
MRQwEgYDVQQDDAtFYXN5LVJTQSBDQTAeFw0yMTAxMDQwNjM2NTdaFw0zMTAxMDIw
NjM2NTdaMBkxFzAVBgNVBAMMDm5ld2h0Ym94c2VydmVyMIIBIjANBgkqhkiG9w0B
AQEFAAOCAQ8AMIIBCgKCAQEArc2CaziIW63f9/zfMQivgG+vOUvrC5e2bhbFQWcq
bYcKVe/lC4qxG+RP67EkvX4an5JQCr1aGjpZtjcioQb6swabVRPi4h4SPfU1s5ss
hrAe3n3kpYjW8CU+/psi4cEJu7r0I63glvSfI6eFr21/conZeDG4tHIGBdtMZmCd
IRx+CPM2JJoq2BEm+lP0AQx7XUg9e3lXd675VwkebdIACgJRC7m9uFhKwLFMtorR
NwMSUNX9tBgxcpUb+c0EoO7iTQyPlZrCTGCPf9/UYyad7xeXZb3CCg8oXOzWIL79
zr9tx5r8IUX1x3j4fd+hcVyTrhhON0LbBvgEmchPopiCYQIDAQABo4GyMIGvMAkG
A1UdEwQCMAAwHQYDVR0OBBYEFPScehsX0GPN7cF8HIh6A/DKaSv0MEYGA1UdIwQ/
MD2AFA8rVUb8dkk51wVK0bxHIKpbH8gVoRqkGDAWMRQwEgYDVQQDDAtFYXN5LVJT
QSBDQYIJAKyE/o+ObJpzMBMGA1UdJQQMMAoGCCsGAQUFBwMBMAsGA1UdDwQEAwIF
oDAZBgNVHREEEjAQgg5uZXdodGJveHNlcnZlcjANBgkqhkiG9w0BAQsFAAOCAQEA
nmhErJa73zCrNoxKvS8SBx5PMc5b70Hxkc9wc0kjq5cQK52AkQ/QOyvx6VR4GYii
tEhWABfa5QCIvIOE9gK9ZKtG2o+jZ/2nVMOIgTRlX8H0QkFT7ebaioCXIgWDswr0
8NGQNHaNGAbefAl2oiNt7Z9u350Auh/8DvkLWmBWb4QMk7NBpuQt/71uDa0c44LI
JvKfkp9EQWWt9i4y0TPQcFkMIBe8Xa0H48HQIE51eA4PYEmewzT1ig+WCSEcE+oj
cjb0yWgePmq90xE8zbQD3+AC94gQKnMPCR5GRtF1jNt94+V64tZ1P6XiKZN9Ep38
PcxGmK4/2TiKy7qWFSXYew==
-----END CERTIFICATE-----
