Certificate:
    Data:
        Version: 3 (0x2)
        Serial Number:
            95:0e:ae:01:34:4f:cc:77:a4:76:17:39:fd:c9:f2:5c
    Signature Algorithm: sha256WithRSAEncryption
        Issuer: CN=Easy-RSA CA
        Validity
            Not Before: Jan  4 06:39:23 2021 GMT
            Not After : Jan  2 06:39:23 2031 GMT
        Subject: CN=host
        Subject Public Key Info:
            Public Key Algorithm: rsaEncryption
                Public-Key: (2048 bit)
                Modulus:
                    00:9d:de:46:a9:88:ec:2a:7f:b5:e0:ee:60:91:f6:
                    6f:e7:e7:0c:00:a4:8e:7b:46:a5:48:e4:7a:16:09:
                    21:89:40:2e:99:02:b1:64:9f:72:73:08:ea:1a:f7:
                    20:0f:65:cc:46:01:41:08:02:ce:80:fa:45:82:1f:
                    09:f1:84:ed:95:20:85:8d:74:5b:a9:96:93:c2:15:
                    9e:d4:bd:d8:bf:f2:b4:10:58:14:7a:f7:c9:07:2e:
                    8c:d5:10:14:d8:7b:b0:1d:36:89:f7:2c:78:f7:82:
                    be:ed:56:5e:99:9b:51:6b:3e:cf:0f:ec:03:fe:bc:
                    92:50:01:ac:84:42:18:8a:c5:4e:7b:de:92:55:30:
                    4d:d2:69:f7:d8:b0:7c:e2:8c:f7:d2:c5:a5:3d:85:
                    b1:32:72:b8:2c:d0:fe:22:18:03:cb:5c:43:33:5b:
                    11:fe:31:23:ed:f5:b8:2f:49:cd:5d:e1:01:48:f1:
                    94:a5:19:16:e4:07:eb:0e:be:fc:b5:55:89:b4:60:
                    30:95:db:12:d9:1c:02:76:6a:7d:13:a8:55:00:73:
                    28:08:84:44:a7:b8:d0:80:c2:1e:96:83:08:ad:94:
                    80:af:5d:c4:4b:48:f8:fc:6a:82:80:b0:28:ab:31:
                    45:18:4b:38:9b:40:12:54:c6:4a:e1:69:f7:ab:45:
                    e5:53
                Exponent: 65537 (0x10001)
        X509v3 extensions:
            X509v3 Basic Constraints: 
                CA:FALSE
            X509v3 Subject Key Identifier: 
                5F:BF:01:C5:E2:64:6F:B2:CA:86:6E:CD:B9:19:A9:71:3E:67:82:58
            X509v3 Authority Key Identifier: 
                keyid:0F:2B:55:46:FC:76:49:39:D7:05:4A:D1:BC:47:20:AA:5B:1F:C8:15
                DirName:/CN=Easy-RSA CA
                serial:AC:84:FE:8F:8E:6C:9A:73

            X509v3 Extended Key Usage: 
                TLS Web Client Authentication
            X509v3 Key Usage: 
                Digital Signature
    Signature Algorithm: sha256WithRSAEncryption
         08:9d:46:36:98:9c:2c:15:c6:af:ea:98:6d:87:92:68:77:9d:
         48:d4:69:4d:27:34:28:42:0f:54:8f:66:0a:16:21:cb:f0:6d:
         df:a4:fa:ab:54:b5:0f:8e:05:01:9f:98:cc:03:77:6a:e9:62:
         77:15:bc:8e:60:3a:af:b8:f1:e6:dd:3a:6d:17:27:45:1f:d0:
         df:1b:86:b6:8b:91:80:49:d6:ec:12:ed:02:9c:21:a0:fb:2a:
         c0:20:a4:e0:35:2b:f0:5e:ad:4c:06:d9:50:9d:23:de:d7:ee:
         e2:48:66:a0:4f:e1:46:49:6a:90:c6:1a:b2:78:c1:6b:64:87:
         a5:d0:b5:a7:32:4d:88:fe:86:5c:7b:68:2e:3b:5e:db:c2:e9:
         21:04:90:27:41:40:3a:5e:a7:76:3b:2c:65:4c:66:02:64:5c:
         3c:58:83:13:50:64:0f:43:58:c7:fb:76:c4:47:e1:d9:99:8e:
         f4:41:c3:16:9f:51:24:b6:93:ee:9a:7a:40:7a:94:87:7c:d3:
         be:1d:f4:52:92:d0:dc:60:7b:97:4e:2b:f3:83:43:ec:d3:4c:
         9b:cd:b5:f9:f4:6b:04:fb:4c:93:52:a5:a5:fd:ba:e6:7b:ff:
         53:02:5a:51:cf:26:92:0c:e3:c3:c1:c3:61:b2:58:42:5d:37:
         f8:b7:60:89
-----BEGIN CERTIFICATE-----
MIIDSDCCAjCgAwIBAgIRAJUOrgE0T8x3pHYXOf3J8lwwDQYJKoZIhvcNAQELBQAw
FjEUMBIGA1UEAwwLRWFzeS1SU0EgQ0EwHhcNMjEwMTA0MDYzOTIzWhcNMzEwMTAy
MDYzOTIzWjAPMQ0wCwYDVQQDDARob3N0MIIBIjANBgkqhkiG9w0BAQEFAAOCAQ8A
MIIBCgKCAQEAnd5GqYjsKn+14O5gkfZv5+cMAKSOe0alSOR6FgkhiUAumQKxZJ9y
cwjqGvcgD2XMRgFBCALOgPpFgh8J8YTtlSCFjXRbqZaTwhWe1L3Yv/K0EFgUevfJ
By6M1RAU2HuwHTaJ9yx494K+7VZemZtRaz7PD+wD/rySUAGshEIYisVOe96SVTBN
0mn32LB84oz30sWlPYWxMnK4LND+IhgDy1xDM1sR/jEj7fW4L0nNXeEBSPGUpRkW
5AfrDr78tVWJtGAwldsS2RwCdmp9E6hVAHMoCIREp7jQgMIeloMIrZSAr13ES0j4
/GqCgLAoqzFFGEs4m0ASVMZK4Wn3q0XlUwIDAQABo4GXMIGUMAkGA1UdEwQCMAAw
HQYDVR0OBBYEFF+/AcXiZG+yyoZuzbkZqXE+Z4JYMEYGA1UdIwQ/MD2AFA8rVUb8
dkk51wVK0bxHIKpbH8gVoRqkGDAWMRQwEgYDVQQDDAtFYXN5LVJTQSBDQYIJAKyE
/o+ObJpzMBMGA1UdJQQMMAoGCCsGAQUFBwMCMAsGA1UdDwQEAwIHgDANBgkqhkiG
9w0BAQsFAAOCAQEACJ1GNpicLBXGr+qYbYeSaHedSNRpTSc0KEIPVI9mChYhy/Bt
36T6q1S1D44FAZ+YzAN3aulidxW8jmA6r7jx5t06bRcnRR/Q3xuGtouRgEnW7BLt
ApwhoPsqwCCk4DUr8F6tTAbZUJ0j3tfu4khmoE/hRklqkMYasnjBa2SHpdC1pzJN
iP6GXHtoLjte28LpIQSQJ0FAOl6ndjssZUxmAmRcPFiDE1BkD0NYx/t2xEfh2ZmO
9EHDFp9RJLaT7pp6QHqUh3zTvh30UpLQ3GB7l04r84ND7NNMm821+fRrBPtMk1Kl
pf265nv/UwJaUc8mkgzjw8HDYbJYQl03+LdgiQ==
-----END CERTIFICATE-----
